; Function Attrs: mustprogress nounwind uwtable
define hidden noundef ptr @_ZNK12ZStatCounter3getEv(ptr nocapture noundef nonnull readonly align 8 dereferenceable(72) %0) local_unnamed_addr #0 align 2 {
  %2 = load ptr, ptr @_ZN4ZCPU9_affinityE, align 8
  %3 = tail call align 4 ptr @llvm.threadlocal.address.p0(ptr align 4 @_ZN4ZCPU4_cpuE)
  %4 = load i32, ptr %3, align 4
  %5 = zext i32 %4 to i64
  %6 = getelementptr inbounds %class.PaddedEnd, ptr %2, i64 %5
  %7 = load ptr, ptr %6, align 8
  %8 = tail call align 8 ptr @llvm.threadlocal.address.p0(ptr align 8 @_ZN4ZCPU5_selfE)
  %9 = load ptr, ptr %8, align 8
  %10 = icmp eq ptr %7, %9
  br i1 %10, label %_ZN4ZCPU2idEv.exit, label %11

11:                                               ; preds = %1
  %12 = tail call noundef i32 @_ZN4ZCPU7id_slowEv() #20
  br label %_ZN4ZCPU2idEv.exit

_ZN4ZCPU2idEv.exit:                               ; preds = %1, %11
  %.0.i = phi i32 [ %12, %11 ], [ %4, %1 ]
  %13 = load i64, ptr @_ZN10ZStatValue5_baseE, align 8
  %14 = load i32, ptr @_ZN10ZStatValue11_cpu_offsetE, align 4
  %15 = mul i32 %14, %.0.i
  %16 = zext i32 %15 to i64
  %17 = add i64 %13, %16
  %18 = getelementptr inbounds i8, ptr %0, i64 20
  %19 = load i32, ptr %18, align 4
  %20 = zext i32 %19 to i64
  %21 = add i64 %17, %20
  %22 = inttoptr i64 %21 to ptr
  ret ptr %22
}